target datalayout = "e-m:e-p270:32:32-p271:32:32-p272:64:64-i64:64-i128:128-f80:128-n8:16:32:64-S128"
target triple = "x86_64-pc-linux-gnu"

%"class.std::exception" = type { ptr }
%"class.std::__1::__libcpp_refstring" = type { ptr }
%"struct.std::__1::__refstring_imp::(anonymous namespace)::_Rep_base" = type { i64, i64, i32 }
%"class.std::runtime_error" = type { %"class.std::exception", %"class.std::__1::__libcpp_refstring" }

; Function Attrs: inlinehint mustprogress nounwind uwtable
define internal noundef i32 @_ZNSt3__112_GLOBAL__N_119__libcpp_atomic_addB8ne210000IiiEET_PS2_T0_i(ptr noundef %0, i32 noundef %1, i32 noundef %2) #4 {
  %4 = alloca ptr, align 8
  %5 = alloca i32, align 4
  %6 = alloca i32, align 4
  %7 = alloca i32, align 4
  %8 = alloca i32, align 4
  store ptr %0, ptr %4, align 8, !tbaa !37
  store i32 %1, ptr %5, align 4, !tbaa !39
  store i32 %2, ptr %6, align 4, !tbaa !39
  %9 = load ptr, ptr %4, align 8, !tbaa !37
  %10 = load i32, ptr %6, align 4, !tbaa !39
  %11 = load i32, ptr %5, align 4, !tbaa !39
  store i32 %11, ptr %7, align 4, !tbaa !39
  switch i32 %10, label %12 [
    i32 1, label %16
    i32 2, label %16
    i32 3, label %20
    i32 4, label %24
    i32 5, label %28
  ]

12:                                               ; preds = %3
  %13 = load i32, ptr %7, align 4
  %14 = atomicrmw add ptr %9, i32 %13 monotonic, align 4
  %15 = add i32 %14, %13
  store i32 %15, ptr %8, align 4
  br label %32

16:                                               ; preds = %3, %3
  %17 = load i32, ptr %7, align 4
  %18 = atomicrmw add ptr %9, i32 %17 acquire, align 4
  %19 = add i32 %18, %17
  store i32 %19, ptr %8, align 4
  br label %32

20:                                               ; preds = %3
  %21 = load i32, ptr %7, align 4
  %22 = atomicrmw add ptr %9, i32 %21 release, align 4
  %23 = add i32 %22, %21
  store i32 %23, ptr %8, align 4
  br label %32

24:                                               ; preds = %3
  %25 = load i32, ptr %7, align 4
  %26 = atomicrmw add ptr %9, i32 %25 acq_rel, align 4
  %27 = add i32 %26, %25
  store i32 %27, ptr %8, align 4
  br label %32

28:                                               ; preds = %3
  %29 = load i32, ptr %7, align 4
  %30 = atomicrmw add ptr %9, i32 %29 seq_cst, align 4
  %31 = add i32 %30, %29
  store i32 %31, ptr %8, align 4
  br label %32

32:                                               ; preds = %28, %24, %20, %16, %12
  %33 = load i32, ptr %8, align 4, !tbaa !39
  ret i32 %33
}

; Function Attrs: inlinehint mustprogress nounwind uwtable
define internal noundef ptr @_ZNSt3__115__refstring_imp12_GLOBAL__N_113rep_from_dataB8ne210000EPKc(ptr noundef %0) #4 {
  %2 = alloca ptr, align 8
  %3 = alloca ptr, align 8
  store ptr %0, ptr %2, align 8, !tbaa !17
  call void @llvm.lifetime.start.p0(i64 8, ptr %3) #12
  %4 = load ptr, ptr %2, align 8, !tbaa !17
  store ptr %4, ptr %3, align 8, !tbaa !17
  %5 = load ptr, ptr %3, align 8, !tbaa !17
  %6 = getelementptr inbounds i8, ptr %5, i64 -24
  call void @llvm.lifetime.end.p0(i64 8, ptr %3) #12
  ret ptr %6
}

; Function Attrs: inlinehint mustprogress nounwind uwtable
define linkonce_odr hidden noundef zeroext i1 @_ZNKSt3__118__libcpp_refstring15__uses_refcountB8ne210000Ev(ptr noundef nonnull align 8 dereferenceable(8) %0) #4 comdat align 2 {
  %2 = alloca ptr, align 8
  store ptr %0, ptr %2, align 8, !tbaa !15
  ret i1 true
}

; Function Attrs: inlinehint mustprogress nounwind uwtable
define linkonce_odr hidden noundef nonnull align 8 dereferenceable(8) ptr @_ZNSt3__118__libcpp_refstringaSB8ne210000ERKS0_(ptr noundef nonnull align 8 dereferenceable(8) %0, ptr noundef nonnull align 8 dereferenceable(8) %1) #4 comdat align 2 {
  %3 = alloca ptr, align 8
  %4 = alloca ptr, align 8
  %5 = alloca i8, align 1
  %6 = alloca ptr, align 8
  store ptr %0, ptr %3, align 8, !tbaa !15
  store ptr %1, ptr %4, align 8, !tbaa !15
  %7 = load ptr, ptr %3, align 8
  call void @llvm.lifetime.start.p0(i64 1, ptr %5) #12
  %8 = call noundef zeroext i1 @_ZNKSt3__118__libcpp_refstring15__uses_refcountB8ne210000Ev(ptr noundef nonnull align 8 dereferenceable(8) %7)
  %9 = zext i1 %8 to i8
  store i8 %9, ptr %5, align 1, !tbaa !30
  call void @llvm.lifetime.start.p0(i64 8, ptr %6) #12
  %10 = getelementptr inbounds nuw %"class.std::__1::__libcpp_refstring", ptr %7, i32 0, i32 0
  %11 = load ptr, ptr %10, align 8, !tbaa !28
  %12 = call noundef ptr @_ZNSt3__115__refstring_imp12_GLOBAL__N_113rep_from_dataB8ne210000EPKc(ptr noundef %11) #12
  store ptr %12, ptr %6, align 8, !tbaa !21
  %13 = load ptr, ptr %4, align 8, !tbaa !15
  %14 = getelementptr inbounds nuw %"class.std::__1::__libcpp_refstring", ptr %13, i32 0, i32 0
  %15 = load ptr, ptr %14, align 8, !tbaa !28
  %16 = getelementptr inbounds nuw %"class.std::__1::__libcpp_refstring", ptr %7, i32 0, i32 0
  store ptr %15, ptr %16, align 8, !tbaa !28
  %17 = call noundef zeroext i1 @_ZNKSt3__118__libcpp_refstring15__uses_refcountB8ne210000Ev(ptr noundef nonnull align 8 dereferenceable(8) %7)
  br i1 %17, label %18, label %24

18:                                               ; preds = %2
  %19 = getelementptr inbounds nuw %"class.std::__1::__libcpp_refstring", ptr %7, i32 0, i32 0
  %20 = load ptr, ptr %19, align 8, !tbaa !28
  %21 = call noundef ptr @_ZNSt3__115__refstring_imp12_GLOBAL__N_113rep_from_dataB8ne210000EPKc(ptr noundef %20) #12
  %22 = getelementptr inbounds nuw %"struct.std::__1::__refstring_imp::(anonymous namespace)::_Rep_base", ptr %21, i32 0, i32 2
  %23 = call noundef i32 @_ZNSt3__112_GLOBAL__N_119__libcpp_atomic_addB8ne210000IiiEET_PS2_T0_i(ptr noundef %22, i32 noundef 1, i32 noundef 5)
  br label %24

24:                                               ; preds = %18, %2
  %25 = load i8, ptr %5, align 1, !tbaa !30, !range !32, !noundef !33
  %26 = trunc i8 %25 to i1
  br i1 %26, label %27, label %35

27:                                               ; preds = %24
  %28 = load ptr, ptr %6, align 8, !tbaa !21
  %29 = getelementptr inbounds nuw %"struct.std::__1::__refstring_imp::(anonymous namespace)::_Rep_base", ptr %28, i32 0, i32 2
  %30 = call noundef i32 @_ZNSt3__112_GLOBAL__N_119__libcpp_atomic_addB8ne210000IiiEET_PS2_T0_i(ptr noundef %29, i32 noundef -1, i32 noundef 5)
  %31 = icmp slt i32 %30, 0
  br i1 %31, label %32, label %34

32:                                               ; preds = %27
  %33 = load ptr, ptr %6, align 8, !tbaa !21
  call void @_ZdlPv(ptr noundef %33) #12
  br label %34

34:                                               ; preds = %32, %27
  br label %35

35:                                               ; preds = %34, %24
  call void @llvm.lifetime.end.p0(i64 8, ptr %6) #12
  call void @llvm.lifetime.end.p0(i64 1, ptr %5) #12
  ret ptr %7
}

; Function Attrs: mustprogress nounwind uwtable
define dso_local noundef nonnull align 8 dereferenceable(16) ptr @_ZNSt13runtime_erroraSERKS_(ptr noundef nonnull align 8 dereferenceable(16) %0, ptr noundef nonnull align 8 dereferenceable(16) %1) #1 align 2 {
  %3 = alloca ptr, align 8
  %4 = alloca ptr, align 8
  store ptr %0, ptr %3, align 8, !tbaa !34
  store ptr %1, ptr %4, align 8, !tbaa !34
  %5 = load ptr, ptr %3, align 8
  %6 = load ptr, ptr %4, align 8, !tbaa !34
  %7 = getelementptr inbounds nuw %"class.std::runtime_error", ptr %6, i32 0, i32 1
  %8 = getelementptr inbounds nuw %"class.std::runtime_error", ptr %5, i32 0, i32 1
  %9 = call noundef nonnull align 8 dereferenceable(8) ptr @_ZNSt3__118__libcpp_refstringaSB8ne210000ERKS0_(ptr noundef nonnull align 8 dereferenceable(8) %8, ptr noundef nonnull align 8 dereferenceable(8) %7) #12
  ret ptr %5
}